target datalayout = "e-m:e-p270:32:32-p271:32:32-p272:64:64-i64:64-i128:128-f80:128-n8:16:32:64-S128"
target triple = "x86_64-pc-linux-gnu"

%struct.VPXRangeCoder = type { i32, i32, ptr, ptr, i32, i32 }

@ff_vpx_norm_shift = constant <{ [128 x i8], [128 x i8] }> <{ [128 x i8] c"\08\07\06\06\05\05\05\05\04\04\04\04\04\04\04\04\03\03\03\03\03\03\03\03\03\03\03\03\03\03\03\03\02\02\02\02\02\02\02\02\02\02\02\02\02\02\02\02\02\02\02\02\02\02\02\02\02\02\02\02\02\02\02\02\01\01\01\01\01\01\01\01\01\01\01\01\01\01\01\01\01\01\01\01\01\01\01\01\01\01\01\01\01\01\01\01\01\01\01\01\01\01\01\01\01\01\01\01\01\01\01\01\01\01\01\01\01\01\01\01\01\01\01\01\01\01\01\01", [128 x i8] zeroinitializer }>, align 16

; Function Attrs: nounwind uwtable
define i32 @ff_vpx_init_range_decoder(ptr noundef %0, ptr noundef %1, i32 noundef %2) #0 {
  %4 = alloca i32, align 4
  %5 = alloca ptr, align 8
  %6 = alloca ptr, align 8
  %7 = alloca i32, align 4
  store ptr %0, ptr %5, align 8, !tbaa !4
  store ptr %1, ptr %6, align 8, !tbaa !9
  store i32 %2, ptr %7, align 4, !tbaa !11
  %8 = load ptr, ptr %5, align 8, !tbaa !4
  %9 = getelementptr inbounds nuw %struct.VPXRangeCoder, ptr %8, i32 0, i32 0
  store i32 255, ptr %9, align 8, !tbaa !13
  %10 = load ptr, ptr %5, align 8, !tbaa !4
  %11 = getelementptr inbounds nuw %struct.VPXRangeCoder, ptr %10, i32 0, i32 1
  store i32 -16, ptr %11, align 4, !tbaa !15
  %12 = load ptr, ptr %6, align 8, !tbaa !9
  %13 = load ptr, ptr %5, align 8, !tbaa !4
  %14 = getelementptr inbounds nuw %struct.VPXRangeCoder, ptr %13, i32 0, i32 2
  store ptr %12, ptr %14, align 8, !tbaa !16
  %15 = load ptr, ptr %6, align 8, !tbaa !9
  %16 = load i32, ptr %7, align 4, !tbaa !11
  %17 = sext i32 %16 to i64
  %18 = getelementptr inbounds i8, ptr %15, i64 %17
  %19 = load ptr, ptr %5, align 8, !tbaa !4
  %20 = getelementptr inbounds nuw %struct.VPXRangeCoder, ptr %19, i32 0, i32 3
  store ptr %18, ptr %20, align 8, !tbaa !17
  %21 = load ptr, ptr %5, align 8, !tbaa !4
  %22 = getelementptr inbounds nuw %struct.VPXRangeCoder, ptr %21, i32 0, i32 5
  store i32 0, ptr %22, align 4, !tbaa !18
  %23 = load i32, ptr %7, align 4, !tbaa !11
  %24 = icmp slt i32 %23, 1
  br i1 %24, label %25, label %26

25:                                               ; preds = %3
  store i32 -1094995529, ptr %4, align 4
  br label %32

26:                                               ; preds = %3
  %27 = load ptr, ptr %5, align 8, !tbaa !4
  %28 = getelementptr inbounds nuw %struct.VPXRangeCoder, ptr %27, i32 0, i32 2
  %29 = call i32 @bytestream_get_be24(ptr noundef %28)
  %30 = load ptr, ptr %5, align 8, !tbaa !4
  %31 = getelementptr inbounds nuw %struct.VPXRangeCoder, ptr %30, i32 0, i32 4
  store i32 %29, ptr %31, align 8, !tbaa !19
  store i32 0, ptr %4, align 4
  br label %32

32:                                               ; preds = %26, %25
  %33 = load i32, ptr %4, align 4
  ret i32 %33
}

; Function Attrs: alwaysinline nounwind uwtable
define internal i32 @bytestream_get_be24(ptr noundef %0) #1 {
  %2 = alloca ptr, align 8
  store ptr %0, ptr %2, align 8, !tbaa !20
  %3 = load ptr, ptr %2, align 8, !tbaa !20
  %4 = load ptr, ptr %3, align 8, !tbaa !9
  %5 = getelementptr inbounds i8, ptr %4, i64 3
  store ptr %5, ptr %3, align 8, !tbaa !9
  %6 = load ptr, ptr %2, align 8, !tbaa !20
  %7 = load ptr, ptr %6, align 8, !tbaa !9
  %8 = getelementptr inbounds i8, ptr %7, i64 -3
  %9 = getelementptr inbounds i8, ptr %8, i64 0
  %10 = load i8, ptr %9, align 1, !tbaa !23
  %11 = zext i8 %10 to i32
  %12 = shl i32 %11, 16
  %13 = load ptr, ptr %2, align 8, !tbaa !20
  %14 = load ptr, ptr %13, align 8, !tbaa !9
  %15 = getelementptr inbounds i8, ptr %14, i64 -3
  %16 = getelementptr inbounds i8, ptr %15, i64 1
  %17 = load i8, ptr %16, align 1, !tbaa !23
  %18 = zext i8 %17 to i32
  %19 = shl i32 %18, 8
  %20 = or i32 %12, %19
  %21 = load ptr, ptr %2, align 8, !tbaa !20
  %22 = load ptr, ptr %21, align 8, !tbaa !9
  %23 = getelementptr inbounds i8, ptr %22, i64 -3
  %24 = getelementptr inbounds i8, ptr %23, i64 2
  %25 = load i8, ptr %24, align 1, !tbaa !23
  %26 = zext i8 %25 to i32
  %27 = or i32 %20, %26
  ret i32 %27
}


!llvm.module.flags = !{!0, !1, !2, !3}

!0 = !{i32 1, !"wchar_size", i32 4}
!1 = !{i32 8, !"PIC Level", i32 2}
!2 = !{i32 7, !"uwtable", i32 2}
!3 = !{i32 1, !"override-stack-alignment", i32 16}
!4 = !{!5, !5, i64 0}
!5 = !{!"p1 _ZTS13VPXRangeCoder", !6, i64 0}
!6 = !{!"any pointer", !7, i64 0}
!7 = !{!"omnipotent char", !8, i64 0}
!8 = !{!"Simple C/C++ TBAA"}
!9 = !{!10, !10, i64 0}
!10 = !{!"p1 omnipotent char", !6, i64 0}
!11 = !{!12, !12, i64 0}
!12 = !{!"int", !7, i64 0}
!13 = !{!14, !12, i64 0}
!14 = !{!"VPXRangeCoder", !12, i64 0, !12, i64 4, !10, i64 8, !10, i64 16, !12, i64 24, !12, i64 28}
!15 = !{!14, !12, i64 4}
!16 = !{!14, !10, i64 8}
!17 = !{!14, !10, i64 16}
!18 = !{!14, !12, i64 28}
!19 = !{!14, !12, i64 24}
!20 = !{!21, !21, i64 0}
!21 = !{!"p2 omnipotent char", !22, i64 0}
!22 = !{!"any p2 pointer", !6, i64 0}
!23 = !{!7, !7, i64 0}
