; ModuleID = 'bench/ffmpeg/original/vpx_rac.ll'
source_filename = "bench/ffmpeg/original/vpx_rac.ll"
target datalayout = "e-m:e-p270:32:32-p271:32:32-p272:64:64-i64:64-i128:128-f80:128-n8:16:32:64-S128"
target triple = "x86_64-pc-linux-gnu"

@ff_vpx_norm_shift = local_unnamed_addr constant <{ [128 x i8], [128 x i8] }> <{ [128 x i8] c"\08\07\06\06\05\05\05\05\04\04\04\04\04\04\04\04\03\03\03\03\03\03\03\03\03\03\03\03\03\03\03\03\02\02\02\02\02\02\02\02\02\02\02\02\02\02\02\02\02\02\02\02\02\02\02\02\02\02\02\02\02\02\02\02\01\01\01\01\01\01\01\01\01\01\01\01\01\01\01\01\01\01\01\01\01\01\01\01\01\01\01\01\01\01\01\01\01\01\01\01\01\01\01\01\01\01\01\01\01\01\01\01\01\01\01\01\01\01\01\01\01\01\01\01\01\01\01\01", [128 x i8] zeroinitializer }>, align 16

; Function Attrs: mustprogress nofree norecurse nosync nounwind willreturn memory(argmem: readwrite) uwtable
define range(i32 -1094995529, 1) i32 @ff_vpx_init_range_decoder(ptr noundef writeonly captures(none) initializes((0, 24), (28, 32)) %0, ptr noundef %1, i32 noundef %2) local_unnamed_addr #0 {
  store i32 255, ptr %0, align 8, !tbaa !4
  %4 = getelementptr inbounds nuw i8, ptr %0, i64 4
  store i32 -16, ptr %4, align 4, !tbaa !11
  %5 = getelementptr inbounds nuw i8, ptr %0, i64 8
  store ptr %1, ptr %5, align 8, !tbaa !12
  %6 = sext i32 %2 to i64
  %7 = getelementptr inbounds i8, ptr %1, i64 %6
  %8 = getelementptr inbounds nuw i8, ptr %0, i64 16
  store ptr %7, ptr %8, align 8, !tbaa !13
  %9 = getelementptr inbounds nuw i8, ptr %0, i64 28
  store i32 0, ptr %9, align 4, !tbaa !14
  %10 = icmp slt i32 %2, 1
  br i1 %10, label %26, label %11

11:                                               ; preds = %3
  %12 = getelementptr inbounds nuw i8, ptr %1, i64 3
  store ptr %12, ptr %5, align 8, !tbaa !15
  %13 = load i8, ptr %1, align 1, !tbaa !16
  %14 = zext i8 %13 to i32
  %15 = shl nuw nsw i32 %14, 16
  %16 = getelementptr inbounds nuw i8, ptr %1, i64 1
  %17 = load i8, ptr %16, align 1, !tbaa !16
  %18 = zext i8 %17 to i32
  %19 = shl nuw nsw i32 %18, 8
  %20 = or disjoint i32 %19, %15
  %21 = getelementptr inbounds nuw i8, ptr %1, i64 2
  %22 = load i8, ptr %21, align 1, !tbaa !16
  %23 = zext i8 %22 to i32
  %24 = or disjoint i32 %20, %23
  %25 = getelementptr inbounds nuw i8, ptr %0, i64 24
  store i32 %24, ptr %25, align 8, !tbaa !17
  br label %26

26:                                               ; preds = %3, %11
  %.0 = phi i32 [ 0, %11 ], [ -1094995529, %3 ]
  ret i32 %.0
}


!llvm.module.flags = !{!0, !1, !2, !3}

!0 = !{i32 1, !"wchar_size", i32 4}
!1 = !{i32 8, !"PIC Level", i32 2}
!2 = !{i32 7, !"uwtable", i32 2}
!3 = !{i32 1, !"override-stack-alignment", i32 16}
!4 = !{!5, !6, i64 0}
!5 = !{!"VPXRangeCoder", !6, i64 0, !6, i64 4, !9, i64 8, !9, i64 16, !6, i64 24, !6, i64 28}
!6 = !{!"int", !7, i64 0}
!7 = !{!"omnipotent char", !8, i64 0}
!8 = !{!"Simple C/C++ TBAA"}
!9 = !{!"p1 omnipotent char", !10, i64 0}
!10 = !{!"any pointer", !7, i64 0}
!11 = !{!5, !6, i64 4}
!12 = !{!5, !9, i64 8}
!13 = !{!5, !9, i64 16}
!14 = !{!5, !6, i64 28}
!15 = !{!9, !9, i64 0}
!16 = !{!7, !7, i64 0}
!17 = !{!5, !6, i64 24}
